; ModuleID = 'source-C-CXX/12/584.c'
source_filename = "source-C-CXX/12/584.c"
target datalayout = "e-m:e-p270:32:32-p271:32:32-p272:64:64-i64:64-f80:128-n8:16:32:64-S128"
target triple = "x86_64-pc-linux-gnu"

@.str = private unnamed_addr constant [3 x i8] c"%d\00", align 1
@.str.1 = private unnamed_addr constant [4 x i8] c"%d \00", align 1

; Function Attrs: nofree nounwind sspstrong uwtable
define dso_local void @main() local_unnamed_addr #0 {
  %1 = alloca i32, align 4
  %2 = alloca [20000 x i32], align 16
  %3 = alloca [20000 x i32], align 16
  %4 = bitcast i32* %1 to i8*
  call void @llvm.lifetime.start.p0i8(i64 4, i8* nonnull %4) #3
  %5 = bitcast [20000 x i32]* %2 to i8*
  call void @llvm.lifetime.start.p0i8(i64 80000, i8* nonnull %5) #3
  %6 = bitcast [20000 x i32]* %3 to i8*
  call void @llvm.lifetime.start.p0i8(i64 80000, i8* nonnull %6) #3
  %7 = call i32 (i8*, ...) @__isoc99_scanf(i8* getelementptr inbounds ([3 x i8], [3 x i8]* @.str, i64 0, i64 0), i32* nonnull %1)
  %8 = load i32, i32* %1, align 4, !tbaa !5
  %9 = icmp sgt i32 %8, 0
  br i1 %9, label %10, label %104

10:                                               ; preds = %0, %10
  %11 = phi i64 [ %14, %10 ], [ 0, %0 ]
  %12 = getelementptr inbounds [20000 x i32], [20000 x i32]* %2, i64 0, i64 %11
  %13 = call i32 (i8*, ...) @__isoc99_scanf(i8* getelementptr inbounds ([3 x i8], [3 x i8]* @.str, i64 0, i64 0), i32* nonnull %12)
  %14 = add nuw nsw i64 %11, 1
  %15 = load i32, i32* %1, align 4, !tbaa !5
  %16 = sext i32 %15 to i64
  %17 = icmp slt i64 %14, %16
  br i1 %17, label %10, label %18, !llvm.loop !9

18:                                               ; preds = %10
  %19 = getelementptr inbounds [20000 x i32], [20000 x i32]* %2, i64 0, i64 0
  %20 = load i32, i32* %19, align 16, !tbaa !5
  %21 = getelementptr inbounds [20000 x i32], [20000 x i32]* %3, i64 0, i64 0
  store i32 %20, i32* %21, align 16, !tbaa !5
  %22 = icmp sgt i32 %15, 1
  br i1 %22, label %23, label %104

23:                                               ; preds = %18
  %24 = zext i32 %15 to i64
  br label %25

25:                                               ; preds = %23, %90
  %26 = phi i64 [ 0, %23 ], [ %94, %90 ]
  %27 = phi i64 [ 1, %23 ], [ %92, %90 ]
  %28 = phi i32 [ 1, %23 ], [ %91, %90 ]
  %29 = add i64 %26, 1
  %30 = getelementptr inbounds [20000 x i32], [20000 x i32]* %2, i64 0, i64 %27
  %31 = load i32, i32* %30, align 4, !tbaa !5
  %32 = and i64 %29, 3
  %33 = icmp ult i64 %26, 3
  br i1 %33, label %67, label %34

34:                                               ; preds = %25
  %35 = and i64 %29, -4
  br label %41

36:                                               ; preds = %90
  %37 = icmp sgt i32 %91, 1
  br i1 %37, label %38, label %104

38:                                               ; preds = %36
  %39 = add nsw i32 %91, -1
  %40 = zext i32 %39 to i64
  br label %95

41:                                               ; preds = %41, %34
  %42 = phi i64 [ 0, %34 ], [ %64, %41 ]
  %43 = phi i32 [ 1, %34 ], [ %63, %41 ]
  %44 = phi i64 [ %35, %34 ], [ %65, %41 ]
  %45 = getelementptr inbounds [20000 x i32], [20000 x i32]* %2, i64 0, i64 %42
  %46 = load i32, i32* %45, align 16, !tbaa !5
  %47 = icmp eq i32 %31, %46
  %48 = or i64 %42, 1
  %49 = getelementptr inbounds [20000 x i32], [20000 x i32]* %2, i64 0, i64 %48
  %50 = load i32, i32* %49, align 4, !tbaa !5
  %51 = icmp eq i32 %31, %50
  %52 = or i64 %42, 2
  %53 = getelementptr inbounds [20000 x i32], [20000 x i32]* %2, i64 0, i64 %52
  %54 = load i32, i32* %53, align 8, !tbaa !5
  %55 = icmp eq i32 %31, %54
  %56 = or i64 %42, 3
  %57 = getelementptr inbounds [20000 x i32], [20000 x i32]* %2, i64 0, i64 %56
  %58 = load i32, i32* %57, align 4, !tbaa !5
  %59 = icmp eq i32 %31, %58
  %60 = select i1 %59, i1 true, i1 %55
  %61 = select i1 %60, i1 true, i1 %51
  %62 = select i1 %61, i1 true, i1 %47
  %63 = select i1 %62, i32 0, i32 %43
  %64 = add nuw nsw i64 %42, 4
  %65 = add i64 %44, -4
  %66 = icmp eq i64 %65, 0
  br i1 %66, label %67, label %41, !llvm.loop !11

67:                                               ; preds = %41, %25
  %68 = phi i32 [ undef, %25 ], [ %63, %41 ]
  %69 = phi i64 [ 0, %25 ], [ %64, %41 ]
  %70 = phi i32 [ 1, %25 ], [ %63, %41 ]
  %71 = icmp eq i64 %32, 0
  br i1 %71, label %83, label %72

72:                                               ; preds = %67, %72
  %73 = phi i64 [ %80, %72 ], [ %69, %67 ]
  %74 = phi i32 [ %79, %72 ], [ %70, %67 ]
  %75 = phi i64 [ %81, %72 ], [ %32, %67 ]
  %76 = getelementptr inbounds [20000 x i32], [20000 x i32]* %2, i64 0, i64 %73
  %77 = load i32, i32* %76, align 4, !tbaa !5
  %78 = icmp eq i32 %31, %77
  %79 = select i1 %78, i32 0, i32 %74
  %80 = add nuw nsw i64 %73, 1
  %81 = add i64 %75, -1
  %82 = icmp eq i64 %81, 0
  br i1 %82, label %83, label %72, !llvm.loop !12

83:                                               ; preds = %72, %67
  %84 = phi i32 [ %68, %67 ], [ %79, %72 ]
  %85 = icmp eq i32 %84, 1
  br i1 %85, label %86, label %90

86:                                               ; preds = %83
  %87 = sext i32 %28 to i64
  %88 = getelementptr inbounds [20000 x i32], [20000 x i32]* %3, i64 0, i64 %87
  store i32 %31, i32* %88, align 4, !tbaa !5
  %89 = add nsw i32 %28, 1
  br label %90

90:                                               ; preds = %86, %83
  %91 = phi i32 [ %89, %86 ], [ %28, %83 ]
  %92 = add nuw nsw i64 %27, 1
  %93 = icmp eq i64 %92, %24
  %94 = add i64 %26, 1
  br i1 %93, label %36, label %25, !llvm.loop !14

95:                                               ; preds = %38, %95
  %96 = phi i64 [ 0, %38 ], [ %100, %95 ]
  %97 = getelementptr inbounds [20000 x i32], [20000 x i32]* %3, i64 0, i64 %96
  %98 = load i32, i32* %97, align 4, !tbaa !5
  %99 = call i32 (i8*, ...) @printf(i8* nonnull dereferenceable(1) getelementptr inbounds ([4 x i8], [4 x i8]* @.str.1, i64 0, i64 0), i32 %98)
  %100 = add nuw nsw i64 %96, 1
  %101 = icmp eq i64 %100, %40
  br i1 %101, label %102, label %95, !llvm.loop !15

102:                                              ; preds = %95
  %103 = zext i32 %39 to i64
  br label %104

104:                                              ; preds = %0, %18, %36, %102
  %105 = phi i64 [ %103, %102 ], [ 0, %36 ], [ 0, %18 ], [ 0, %0 ]
  %106 = getelementptr inbounds [20000 x i32], [20000 x i32]* %3, i64 0, i64 %105
  %107 = load i32, i32* %106, align 4, !tbaa !5
  %108 = call i32 (i8*, ...) @printf(i8* nonnull dereferenceable(1) getelementptr inbounds ([3 x i8], [3 x i8]* @.str, i64 0, i64 0), i32 %107)
  call void @llvm.lifetime.end.p0i8(i64 80000, i8* nonnull %6) #3
  call void @llvm.lifetime.end.p0i8(i64 80000, i8* nonnull %5) #3
  call void @llvm.lifetime.end.p0i8(i64 4, i8* nonnull %4) #3
  ret void
}

; Function Attrs: argmemonly mustprogress nofree nosync nounwind willreturn
declare void @llvm.lifetime.start.p0i8(i64 immarg, i8* nocapture) #1

; Function Attrs: nofree nounwind
declare noundef i32 @__isoc99_scanf(i8* nocapture noundef readonly, ...) local_unnamed_addr #2

; Function Attrs: nofree nounwind
declare noundef i32 @printf(i8* nocapture noundef readonly, ...) local_unnamed_addr #2

; Function Attrs: argmemonly mustprogress nofree nosync nounwind willreturn
declare void @llvm.lifetime.end.p0i8(i64 immarg, i8* nocapture) #1


!llvm.module.flags = !{!0, !1, !2, !3}
!llvm.ident = !{!4}

!0 = !{i32 1, !"wchar_size", i32 4}
!1 = !{i32 7, !"PIC Level", i32 2}
!2 = !{i32 7, !"PIE Level", i32 2}
!3 = !{i32 7, !"uwtable", i32 1}
!4 = !{!"clang version 13.0.0"}
!5 = !{!6, !6, i64 0}
!6 = !{!"int", !7, i64 0}
!7 = !{!"omnipotent char", !8, i64 0}
!8 = !{!"Simple C/C++ TBAA"}
!9 = distinct !{!9, !10}
!10 = !{!"llvm.loop.mustprogress"}
!11 = distinct !{!11, !10}
!12 = distinct !{!12, !13}
!13 = !{!"llvm.loop.unroll.disable"}
!14 = distinct !{!14, !10}
!15 = distinct !{!15, !10}
